; Function Attrs: mustprogress uwtable
define hidden void @_ZN5osgeo4proj9operation25createOpParamNameEPSGCodeEi(ptr dead_on_unwind noalias writable sret(%"class.dropbox::oxygen::nn") align 8 %0, i32 noundef %1) local_unnamed_addr #0 personality ptr @__gxx_personality_v0 {
  %3 = alloca %"class.osgeo::proj::util::PropertyMap", align 8
  %4 = tail call noundef ptr @_ZN5osgeo4proj9operation18OperationParameter18getNameForEPSGCodeEi(i32 noundef %1) #25
  call void @llvm.lifetime.start.p0(i64 8, ptr nonnull %3) #25
  call void @_ZN5osgeo4proj9operation21createMapNameEPSGCodeEPKci(ptr dead_on_unwind nonnull writable sret(%"class.osgeo::proj::util::PropertyMap") align 8 %3, ptr noundef %4, i32 noundef %1)
  invoke void @_ZN5osgeo4proj9operation18OperationParameter6createERKNS0_4util11PropertyMapE(ptr dead_on_unwind writable sret(%"class.dropbox::oxygen::nn") align 8 %0, ptr noundef nonnull align 8 dereferenceable(8) %3)
          to label %5 unwind label %6

5:                                                ; preds = %2
  call void @_ZN5osgeo4proj4util11PropertyMapD1Ev(ptr noundef nonnull align 8 dereferenceable(8) %3) #25
  call void @llvm.lifetime.end.p0(i64 8, ptr nonnull %3) #25
  ret void

6:                                                ; preds = %2
  %7 = landingpad { ptr, i32 }
          cleanup
  call void @_ZN5osgeo4proj4util11PropertyMapD1Ev(ptr noundef nonnull align 8 dereferenceable(8) %3) #25
  call void @llvm.lifetime.end.p0(i64 8, ptr nonnull %3) #25
  resume { ptr, i32 } %7
}